target datalayout = "e-m:e-p270:32:32-p271:32:32-p272:64:64-i64:64-i128:128-f80:128-n8:16:32:64-S128"
target triple = "x86_64-pc-linux-gnu"

%struct.UserOpts = type { i8, i8, i8, i32, i32, ptr, ptr }
%struct.OSInfo = type { ptr, ptr, i8, ptr, i32, ptr, i32, ptr }

@user_opts = external global %struct.UserOpts, align 8
@.str = private unnamed_addr constant [28 x i8] c"Cloning user relation files\00", align 1
@.str.1 = private unnamed_addr constant [28 x i8] c"Copying user relation files\00", align 1
@.str.2 = private unnamed_addr constant [49 x i8] c"Copying user relation files with copy_file_range\00", align 1
@.str.3 = private unnamed_addr constant [28 x i8] c"Linking user relation files\00", align 1
@os_info = external global %struct.OSInfo, align 8

; Function Attrs: nounwind uwtable
define dso_local void @transfer_all_new_tablespaces(ptr noundef %0, ptr noundef %1, ptr noundef %2, ptr noundef %3) #0 {
  %5 = alloca ptr, align 8
  %6 = alloca ptr, align 8
  %7 = alloca ptr, align 8
  %8 = alloca ptr, align 8
  %9 = alloca i32, align 4
  store ptr %0, ptr %5, align 8
  store ptr %1, ptr %6, align 8
  store ptr %2, ptr %7, align 8
  store ptr %3, ptr %8, align 8
  %10 = load i32, ptr getelementptr inbounds nuw (%struct.UserOpts, ptr @user_opts, i32 0, i32 3), align 4
  switch i32 %10, label %15 [
    i32 0, label %11
    i32 1, label %12
    i32 2, label %13
    i32 3, label %14
  ]

11:                                               ; preds = %4
  call void (ptr, ...) @prep_status_progress(ptr noundef @.str)
  br label %15

12:                                               ; preds = %4
  call void (ptr, ...) @prep_status_progress(ptr noundef @.str.1)
  br label %15

13:                                               ; preds = %4
  call void (ptr, ...) @prep_status_progress(ptr noundef @.str.2)
  br label %15

14:                                               ; preds = %4
  call void (ptr, ...) @prep_status_progress(ptr noundef @.str.3)
  br label %15

15:                                               ; preds = %4, %14, %13, %12, %11
  %16 = load i32, ptr getelementptr inbounds nuw (%struct.UserOpts, ptr @user_opts, i32 0, i32 4), align 8
  %17 = icmp sle i32 %16, 1
  br i1 %17, label %18, label %23

18:                                               ; preds = %15
  %19 = load ptr, ptr %5, align 8
  %20 = load ptr, ptr %6, align 8
  %21 = load ptr, ptr %7, align 8
  %22 = load ptr, ptr %8, align 8
  call void @parallel_transfer_all_new_dbs(ptr noundef %19, ptr noundef %20, ptr noundef %21, ptr noundef %22, ptr noundef null)
  br label %53

23:                                               ; preds = %15
  call void @llvm.lifetime.start.p0(i64 4, ptr %9) #7
  %24 = load ptr, ptr %5, align 8
  %25 = load ptr, ptr %6, align 8
  %26 = load ptr, ptr %7, align 8
  %27 = load ptr, ptr %8, align 8
  %28 = load ptr, ptr %7, align 8
  call void @parallel_transfer_all_new_dbs(ptr noundef %24, ptr noundef %25, ptr noundef %26, ptr noundef %27, ptr noundef %28)
  store i32 0, ptr %9, align 4
  br label %29

29:                                               ; preds = %43, %23
  %30 = load i32, ptr %9, align 4
  %31 = load i32, ptr getelementptr inbounds nuw (%struct.OSInfo, ptr @os_info, i32 0, i32 4), align 8
  %32 = icmp slt i32 %30, %31
  br i1 %32, label %33, label %46

33:                                               ; preds = %29
  %34 = load ptr, ptr %5, align 8
  %35 = load ptr, ptr %6, align 8
  %36 = load ptr, ptr %7, align 8
  %37 = load ptr, ptr %8, align 8
  %38 = load ptr, ptr getelementptr inbounds nuw (%struct.OSInfo, ptr @os_info, i32 0, i32 3), align 8
  %39 = load i32, ptr %9, align 4
  %40 = sext i32 %39 to i64
  %41 = getelementptr inbounds ptr, ptr %38, i64 %40
  %42 = load ptr, ptr %41, align 8
  call void @parallel_transfer_all_new_dbs(ptr noundef %34, ptr noundef %35, ptr noundef %36, ptr noundef %37, ptr noundef %42)
  br label %43

43:                                               ; preds = %33
  %44 = load i32, ptr %9, align 4
  %45 = add i32 %44, 1
  store i32 %45, ptr %9, align 4
  br label %29, !llvm.loop !4

46:                                               ; preds = %29
  br label %47

47:                                               ; preds = %51, %46
  %48 = call zeroext i1 @reap_child(i1 noundef zeroext true)
  %49 = zext i1 %48 to i32
  %50 = icmp eq i32 %49, 1
  br i1 %50, label %51, label %52

51:                                               ; preds = %47
  br label %47, !llvm.loop !6

52:                                               ; preds = %47
  call void @llvm.lifetime.end.p0(i64 4, ptr %9) #7
  br label %53

53:                                               ; preds = %52, %18
  call void @end_progress_output()
  call void @check_ok()
  ret void
}