; Function Attrs: nounwind uwtable
define dso_local void @transfer_all_new_tablespaces(ptr noundef %0, ptr noundef %1, ptr noundef %2, ptr noundef %3) local_unnamed_addr #0 {
  %5 = load i32, ptr getelementptr inbounds nuw (i8, ptr @user_opts, i64 4), align 4
  %6 = icmp ult i32 %5, 4
  br i1 %6, label %switch.lookup, label %8

switch.lookup:                                    ; preds = %4
  %7 = zext nneg i32 %5 to i64
  %switch.gep = getelementptr inbounds nuw [4 x ptr], ptr @switch.table.transfer_all_new_tablespaces, i64 0, i64 %7
  %switch.load = load ptr, ptr %switch.gep, align 8
  tail call void (ptr, ...) @prep_status_progress(ptr noundef nonnull %switch.load) #7
  br label %8

8:                                                ; preds = %4, %switch.lookup
  %9 = load i32, ptr getelementptr inbounds nuw (i8, ptr @user_opts, i64 8), align 8
  %10 = icmp slt i32 %9, 2
  br i1 %10, label %11, label %12

11:                                               ; preds = %8
  tail call void @parallel_transfer_all_new_dbs(ptr noundef %0, ptr noundef %1, ptr noundef %2, ptr noundef %3, ptr noundef null) #7
  br label %.loopexit

12:                                               ; preds = %8
  tail call void @parallel_transfer_all_new_dbs(ptr noundef %0, ptr noundef %1, ptr noundef %2, ptr noundef %3, ptr noundef %2) #7
  %13 = load i32, ptr getelementptr inbounds nuw (i8, ptr @os_info, i64 32), align 8
  %14 = icmp sgt i32 %13, 0
  br i1 %14, label %.lr.ph, label %.preheader.preheader

.lr.ph:                                           ; preds = %12, %.lr.ph
  %indvars.iv = phi i64 [ %indvars.iv.next, %.lr.ph ], [ 0, %12 ]
  %15 = load ptr, ptr getelementptr inbounds nuw (i8, ptr @os_info, i64 24), align 8
  %16 = getelementptr inbounds nuw ptr, ptr %15, i64 %indvars.iv
  %17 = load ptr, ptr %16, align 8
  tail call void @parallel_transfer_all_new_dbs(ptr noundef %0, ptr noundef %1, ptr noundef %2, ptr noundef %3, ptr noundef %17) #7
  %indvars.iv.next = add nuw nsw i64 %indvars.iv, 1
  %18 = load i32, ptr getelementptr inbounds nuw (i8, ptr @os_info, i64 32), align 8
  %19 = sext i32 %18 to i64
  %20 = icmp slt i64 %indvars.iv.next, %19
  br i1 %20, label %.lr.ph, label %.preheader.preheader, !llvm.loop !4

.preheader.preheader:                             ; preds = %.lr.ph, %12
  br label %.preheader

.preheader:                                       ; preds = %.preheader.preheader, %.preheader
  %21 = tail call zeroext i1 @reap_child(i1 noundef zeroext true) #7
  br i1 %21, label %.preheader, label %.loopexit, !llvm.loop !6

.loopexit:                                        ; preds = %.preheader, %11
  tail call void @end_progress_output() #7
  tail call void @check_ok() #7
  ret void
}